target datalayout = "e-m:e-p270:32:32-p271:32:32-p272:64:64-i64:64-i128:128-f80:128-n8:16:32:64-S128"
target triple = "x86_64-pc-linux-gnu"

%struct.AVCodecContext = type { ptr, i32, i32, ptr, i32, i32, ptr, ptr, ptr, i64, i32, i32, ptr, i32, %struct.AVRational, %struct.AVRational, %struct.AVRational, i32, i32, i32, i32, i32, %struct.AVRational, i32, i32, i32, i32, i32, i32, i32, i32, i32, i32, i32, ptr, ptr, i32, float, float, float, float, float, float, float, float, float, i32, i32, i32, i32, i32, i32, i32, i32, i32, i32, i32, i32, ptr, ptr, ptr, i32, i32, i32, i32, i32, i32, i32, i32, i32, i32, %struct.AVChannelLayout, i32, i32, i32, i32, i32, i32, i32, i32, ptr, i32, i32, i32, float, float, i32, i32, i32, i32, i32, ptr, i64, i64, float, float, i32, i32, ptr, ptr, i32, i32, i32, i32, i32, ptr, ptr, ptr, ptr, i32, i32, [8 x i64], i32, i32, i32, i32, i32, i32, i32, ptr, ptr, i32, i32, i32, i32, i32, i32, i32, i32, i32, i32, ptr, ptr, i32, i32, ptr, ptr, ptr, ptr, i32, i32, i64, i32, i32, i64, ptr, i64, ptr, i32, ptr, i32 }
%struct.AVRational = type { i32, i32 }
%struct.AVChannelLayout = type { i32, i32, %union.anon.1, ptr }
%union.anon.1 = type { i64 }
%struct.MagicYUVContext = type { ptr, i32, i32, i8, i32, i32, i32, [4 x i32], [4 x i32], [2 x ptr], ptr, [4 x [256 x %struct.HuffEntry]], %struct.LLVidEncDSPContext, ptr }
%struct.HuffEntry = type { i8, i32 }
%struct.LLVidEncDSPContext = type { ptr, ptr, ptr }
%struct.Slice = type { i32, i32, i32, i32, i32, ptr, ptr, [256 x i64] }

; Function Attrs: cold nounwind optsize uwtable
define internal i32 @magy_encode_close(ptr noundef %0) #0 {
  %2 = alloca ptr, align 8
  %3 = alloca ptr, align 8
  %4 = alloca i32, align 4
  %5 = alloca ptr, align 8
  store ptr %0, ptr %2, align 8, !tbaa !4
  call void @llvm.lifetime.start.p0(i64 8, ptr %3) #11
  %6 = load ptr, ptr %2, align 8, !tbaa !4
  %7 = getelementptr inbounds nuw %struct.AVCodecContext, ptr %6, i32 0, i32 6
  %8 = load ptr, ptr %7, align 8, !tbaa !9
  store ptr %8, ptr %3, align 8, !tbaa !29
  %9 = load ptr, ptr %3, align 8, !tbaa !29
  %10 = getelementptr inbounds nuw %struct.MagicYUVContext, ptr %9, i32 0, i32 10
  %11 = load ptr, ptr %10, align 8, !tbaa !45
  %12 = icmp ne ptr %11, null
  br i1 %12, label %13, label %40

13:                                               ; preds = %1
  call void @llvm.lifetime.start.p0(i64 4, ptr %4) #11
  store i32 0, ptr %4, align 4, !tbaa !38
  br label %14

14:                                               ; preds = %34, %13
  %15 = load i32, ptr %4, align 4, !tbaa !38
  %16 = load ptr, ptr %3, align 8, !tbaa !29
  %17 = getelementptr inbounds nuw %struct.MagicYUVContext, ptr %16, i32 0, i32 2
  %18 = load i32, ptr %17, align 4, !tbaa !39
  %19 = load ptr, ptr %3, align 8, !tbaa !29
  %20 = getelementptr inbounds nuw %struct.MagicYUVContext, ptr %19, i32 0, i32 5
  %21 = load i32, ptr %20, align 8, !tbaa !42
  %22 = mul nsw i32 %18, %21
  %23 = icmp slt i32 %15, %22
  br i1 %23, label %25, label %24

24:                                               ; preds = %14
  call void @llvm.lifetime.end.p0(i64 4, ptr %4) #11
  br label %37

25:                                               ; preds = %14
  call void @llvm.lifetime.start.p0(i64 8, ptr %5) #11
  %26 = load ptr, ptr %3, align 8, !tbaa !29
  %27 = getelementptr inbounds nuw %struct.MagicYUVContext, ptr %26, i32 0, i32 10
  %28 = load ptr, ptr %27, align 8, !tbaa !45
  %29 = load i32, ptr %4, align 4, !tbaa !38
  %30 = sext i32 %29 to i64
  %31 = getelementptr inbounds %struct.Slice, ptr %28, i64 %30
  store ptr %31, ptr %5, align 8, !tbaa !49
  %32 = load ptr, ptr %5, align 8, !tbaa !49
  %33 = getelementptr inbounds nuw %struct.Slice, ptr %32, i32 0, i32 5
  call void @av_freep(ptr noundef %33)
  call void @llvm.lifetime.end.p0(i64 8, ptr %5) #11
  br label %34

34:                                               ; preds = %25
  %35 = load i32, ptr %4, align 4, !tbaa !38
  %36 = add nsw i32 %35, 1
  store i32 %36, ptr %4, align 4, !tbaa !38
  br label %14, !llvm.loop !85

37:                                               ; preds = %24
  %38 = load ptr, ptr %3, align 8, !tbaa !29
  %39 = getelementptr inbounds nuw %struct.MagicYUVContext, ptr %38, i32 0, i32 10
  call void @av_freep(ptr noundef %39)
  br label %40

40:                                               ; preds = %37, %1
  %41 = load ptr, ptr %3, align 8, !tbaa !29
  %42 = getelementptr inbounds nuw %struct.MagicYUVContext, ptr %41, i32 0, i32 9
  call void @av_freep(ptr noundef %42)
  call void @llvm.lifetime.end.p0(i64 8, ptr %3) #11
  ret i32 0
}