; Function Attrs: cold nounwind optsize uwtable
define internal noundef i32 @magy_encode_close(ptr noundef readonly captures(none) %0) #0 {
  %2 = getelementptr inbounds nuw i8, ptr %0, i64 32
  %3 = load ptr, ptr %2, align 8, !tbaa !4
  %4 = getelementptr inbounds nuw i8, ptr %3, i64 80
  %5 = load ptr, ptr %4, align 8, !tbaa !41
  %.not = icmp eq ptr %5, null
  br i1 %.not, label %19, label %.preheader

.preheader:                                       ; preds = %1
  %6 = getelementptr inbounds nuw i8, ptr %3, i64 12
  %7 = getelementptr inbounds nuw i8, ptr %3, i64 24
  %8 = load i32, ptr %6, align 4, !tbaa !35
  %9 = load i32, ptr %7, align 8, !tbaa !40
  %10 = mul nsw i32 %9, %8
  %11 = icmp sgt i32 %10, 0
  br i1 %11, label %.lr.ph, label %._crit_edge

._crit_edge:                                      ; preds = %.lr.ph, %.preheader
  tail call void @av_freep(ptr noundef nonnull %4) #9
  br label %19

.lr.ph:                                           ; preds = %.preheader, %.lr.ph
  %indvars.iv = phi i64 [ %indvars.iv.next, %.lr.ph ], [ 0, %.preheader ]
  %12 = load ptr, ptr %4, align 8, !tbaa !41
  %13 = getelementptr inbounds nuw %struct.Slice, ptr %12, i64 %indvars.iv, i32 5
  tail call void @av_freep(ptr noundef nonnull %13) #9
  %indvars.iv.next = add nuw nsw i64 %indvars.iv, 1
  %14 = load i32, ptr %6, align 4, !tbaa !35
  %15 = load i32, ptr %7, align 8, !tbaa !40
  %16 = mul nsw i32 %15, %14
  %17 = sext i32 %16 to i64
  %18 = icmp slt i64 %indvars.iv.next, %17
  br i1 %18, label %.lr.ph, label %._crit_edge, !llvm.loop !103

19:                                               ; preds = %._crit_edge, %1
  %20 = getelementptr inbounds nuw i8, ptr %3, i64 64
  tail call void @av_freep(ptr noundef nonnull %20) #9
  ret i32 0
}